target datalayout = "e-m:e-p270:32:32-p271:32:32-p272:64:64-i64:64-i128:128-f80:128-n8:16:32:64-S128"
target triple = "x86_64-pc-linux-gnu"

%struct.ARG_list = type { ptr, i8, [0 x i8] }
%union.PROJVALUE = type { double }
%struct.PJ_INIT_INFO = type { [32 x i8], [260 x i8], [32 x i8], [32 x i8], [16 x i8] }

@.str.15 = private unnamed_addr constant [7 x i8] c"+init=\00", align 1
@.str.45 = private unnamed_addr constant [5 x i8] c"epsg\00", align 1
@.str.46 = private unnamed_addr constant [5 x i8] c"EPSG\00", align 1
@.str.47 = private unnamed_addr constant [13 x i8] c"EPSG.VERSION\00", align 1
@.str.48 = private unnamed_addr constant [10 x i8] c"EPSG.DATE\00", align 1
@.str.49 = private unnamed_addr constant [5 x i8] c"IGNF\00", align 1
@.str.50 = private unnamed_addr constant [13 x i8] c"IGNF.VERSION\00", align 1
@.str.51 = private unnamed_addr constant [10 x i8] c"IGNF.DATE\00", align 1
@.str.52 = private unnamed_addr constant [8 x i8] c"Unknown\00", align 1
@.str.53 = private unnamed_addr constant [10 x i8] c":metadata\00", align 1
@.str.54 = private unnamed_addr constant [9 x i8] c"tversion\00", align 1
@.str.55 = private unnamed_addr constant [9 x i8] c"sversion\00", align 1
@.str.56 = private unnamed_addr constant [8 x i8] c"torigin\00", align 1
@.str.57 = private unnamed_addr constant [8 x i8] c"sorigin\00", align 1
@.str.58 = private unnamed_addr constant [12 x i8] c"tlastupdate\00", align 1
@.str.59 = private unnamed_addr constant [12 x i8] c"slastupdate\00", align 1

; Function Attrs: mustprogress uwtable
define void @proj_init_info(ptr dead_on_unwind noalias writable sret(%struct.PJ_INIT_INFO) align 1 %0, ptr noundef %1) #1 {
  %3 = alloca ptr, align 8
  %4 = alloca i32, align 4
  %5 = alloca [80 x i8], align 16
  %6 = alloca [74 x i8], align 16
  %7 = alloca ptr, align 8
  %8 = alloca ptr, align 8
  %9 = alloca ptr, align 8
  %10 = alloca ptr, align 8
  %11 = alloca ptr, align 8
  %12 = alloca %union.PROJVALUE, align 8
  %13 = alloca %union.PROJVALUE, align 8
  %14 = alloca %union.PROJVALUE, align 8
  %15 = alloca %union.PROJVALUE, align 8
  %16 = alloca %union.PROJVALUE, align 8
  %17 = alloca %union.PROJVALUE, align 8
  store ptr %1, ptr %3, align 8
  %18 = call noundef ptr @_Z18pj_get_default_ctxv()
  store ptr %18, ptr %9, align 8
  call void @llvm.memset.p0.i64(ptr align 1 %0, i8 0, i64 372, i1 false)
  %19 = load ptr, ptr %9, align 8
  %20 = load ptr, ptr %3, align 8
  %21 = getelementptr inbounds %struct.PJ_INIT_INFO, ptr %0, i32 0, i32 1
  %22 = getelementptr inbounds [260 x i8], ptr %21, i64 0, i64 0
  %23 = call noundef i32 @_Z12pj_find_fileP6pj_ctxPKcPcm(ptr noundef %19, ptr noundef %20, ptr noundef %22, i64 noundef 260)
  store i32 %23, ptr %4, align 4
  %24 = load i32, ptr %4, align 4
  %25 = icmp ne i32 %24, 0
  br i1 %25, label %26, label %30

26:                                               ; preds = %2
  %27 = load ptr, ptr %3, align 8
  %28 = call i64 @strlen(ptr noundef %27) #7
  %29 = icmp ugt i64 %28, 64
  br i1 %29, label %30, label %101

30:                                               ; preds = %26, %2
  %31 = load ptr, ptr %3, align 8
  %32 = call i32 @strcmp(ptr noundef %31, ptr noundef @.str.45) #7
  %33 = icmp eq i32 %32, 0
  br i1 %33, label %38, label %34

34:                                               ; preds = %30
  %35 = load ptr, ptr %3, align 8
  %36 = call i32 @strcmp(ptr noundef %35, ptr noundef @.str.46) #7
  %37 = icmp eq i32 %36, 0
  br i1 %37, label %38, label %67

38:                                               ; preds = %34, %30
  %39 = load ptr, ptr %9, align 8
  call void @_Z22proj_context_errno_setP6pj_ctxi(ptr noundef %39, i32 noundef 0)
  %40 = getelementptr inbounds %struct.PJ_INIT_INFO, ptr %0, i32 0, i32 0
  %41 = getelementptr inbounds [32 x i8], ptr %40, i64 0, i64 0
  %42 = load ptr, ptr %3, align 8
  %43 = call ptr @strncpy(ptr noundef %41, ptr noundef %42, i64 noundef 31) #19
  %44 = getelementptr inbounds %struct.PJ_INIT_INFO, ptr %0, i32 0, i32 3
  %45 = getelementptr inbounds [32 x i8], ptr %44, i64 0, i64 0
  %46 = call ptr @strcpy(ptr noundef %45, ptr noundef @.str.46) #19
  %47 = load ptr, ptr %9, align 8
  %48 = call ptr @proj_context_get_database_metadata(ptr noundef %47, ptr noundef @.str.47)
  store ptr %48, ptr %10, align 8
  %49 = load ptr, ptr %10, align 8
  %50 = icmp ne ptr %49, null
  br i1 %50, label %51, label %56

51:                                               ; preds = %38
  %52 = getelementptr inbounds %struct.PJ_INIT_INFO, ptr %0, i32 0, i32 2
  %53 = getelementptr inbounds [32 x i8], ptr %52, i64 0, i64 0
  %54 = load ptr, ptr %10, align 8
  %55 = call ptr @strncpy(ptr noundef %53, ptr noundef %54, i64 noundef 31) #19
  br label %56

56:                                               ; preds = %51, %38
  %57 = load ptr, ptr %9, align 8
  %58 = call ptr @proj_context_get_database_metadata(ptr noundef %57, ptr noundef @.str.48)
  store ptr %58, ptr %10, align 8
  %59 = load ptr, ptr %10, align 8
  %60 = icmp ne ptr %59, null
  br i1 %60, label %61, label %66

61:                                               ; preds = %56
  %62 = getelementptr inbounds %struct.PJ_INIT_INFO, ptr %0, i32 0, i32 4
  %63 = getelementptr inbounds [16 x i8], ptr %62, i64 0, i64 0
  %64 = load ptr, ptr %10, align 8
  %65 = call ptr @strncpy(ptr noundef %63, ptr noundef %64, i64 noundef 15) #19
  br label %66

66:                                               ; preds = %61, %56
  br label %198

67:                                               ; preds = %34
  %68 = load ptr, ptr %3, align 8
  %69 = call i32 @strcmp(ptr noundef %68, ptr noundef @.str.49) #7
  %70 = icmp eq i32 %69, 0
  br i1 %70, label %71, label %100

71:                                               ; preds = %67
  %72 = load ptr, ptr %9, align 8
  call void @_Z22proj_context_errno_setP6pj_ctxi(ptr noundef %72, i32 noundef 0)
  %73 = getelementptr inbounds %struct.PJ_INIT_INFO, ptr %0, i32 0, i32 0
  %74 = getelementptr inbounds [32 x i8], ptr %73, i64 0, i64 0
  %75 = load ptr, ptr %3, align 8
  %76 = call ptr @strncpy(ptr noundef %74, ptr noundef %75, i64 noundef 31) #19
  %77 = getelementptr inbounds %struct.PJ_INIT_INFO, ptr %0, i32 0, i32 3
  %78 = getelementptr inbounds [32 x i8], ptr %77, i64 0, i64 0
  %79 = call ptr @strcpy(ptr noundef %78, ptr noundef @.str.49) #19
  %80 = load ptr, ptr %9, align 8
  %81 = call ptr @proj_context_get_database_metadata(ptr noundef %80, ptr noundef @.str.50)
  store ptr %81, ptr %11, align 8
  %82 = load ptr, ptr %11, align 8
  %83 = icmp ne ptr %82, null
  br i1 %83, label %84, label %89

84:                                               ; preds = %71
  %85 = getelementptr inbounds %struct.PJ_INIT_INFO, ptr %0, i32 0, i32 2
  %86 = getelementptr inbounds [32 x i8], ptr %85, i64 0, i64 0
  %87 = load ptr, ptr %11, align 8
  %88 = call ptr @strncpy(ptr noundef %86, ptr noundef %87, i64 noundef 31) #19
  br label %89

89:                                               ; preds = %84, %71
  %90 = load ptr, ptr %9, align 8
  %91 = call ptr @proj_context_get_database_metadata(ptr noundef %90, ptr noundef @.str.51)
  store ptr %91, ptr %11, align 8
  %92 = load ptr, ptr %11, align 8
  %93 = icmp ne ptr %92, null
  br i1 %93, label %94, label %99

94:                                               ; preds = %89
  %95 = getelementptr inbounds %struct.PJ_INIT_INFO, ptr %0, i32 0, i32 4
  %96 = getelementptr inbounds [16 x i8], ptr %95, i64 0, i64 0
  %97 = load ptr, ptr %11, align 8
  %98 = call ptr @strncpy(ptr noundef %96, ptr noundef %97, i64 noundef 15) #19
  br label %99

99:                                               ; preds = %94, %89
  br label %198

100:                                              ; preds = %67
  br label %198

101:                                              ; preds = %26
  %102 = getelementptr inbounds %struct.PJ_INIT_INFO, ptr %0, i32 0, i32 0
  %103 = getelementptr inbounds [32 x i8], ptr %102, i64 0, i64 0
  %104 = load ptr, ptr %3, align 8
  %105 = call ptr @strncpy(ptr noundef %103, ptr noundef %104, i64 noundef 31) #19
  %106 = getelementptr inbounds %struct.PJ_INIT_INFO, ptr %0, i32 0, i32 3
  %107 = getelementptr inbounds [32 x i8], ptr %106, i64 0, i64 0
  %108 = call ptr @strcpy(ptr noundef %107, ptr noundef @.str.52) #19
  %109 = getelementptr inbounds %struct.PJ_INIT_INFO, ptr %0, i32 0, i32 2
  %110 = getelementptr inbounds [32 x i8], ptr %109, i64 0, i64 0
  %111 = call ptr @strcpy(ptr noundef %110, ptr noundef @.str.52) #19
  %112 = getelementptr inbounds %struct.PJ_INIT_INFO, ptr %0, i32 0, i32 4
  %113 = getelementptr inbounds [16 x i8], ptr %112, i64 0, i64 0
  %114 = call ptr @strcpy(ptr noundef %113, ptr noundef @.str.52) #19
  %115 = getelementptr inbounds [74 x i8], ptr %6, i64 0, i64 0
  %116 = load ptr, ptr %3, align 8
  %117 = call ptr @strncpy(ptr noundef %115, ptr noundef %116, i64 noundef 64) #19
  %118 = getelementptr inbounds [74 x i8], ptr %6, i64 0, i64 64
  store i8 0, ptr %118, align 16
  %119 = getelementptr inbounds [74 x i8], ptr %6, i64 0, i64 0
  %120 = getelementptr inbounds [74 x i8], ptr %6, i64 0, i64 0
  %121 = call i64 @strlen(ptr noundef %120) #7
  %122 = getelementptr inbounds i8, ptr %119, i64 %121
  call void @llvm.memcpy.p0.p0.i64(ptr align 1 %122, ptr align 1 @.str.53, i64 10, i1 false)
  %123 = getelementptr inbounds [80 x i8], ptr %5, i64 0, i64 0
  %124 = call ptr @strcpy(ptr noundef %123, ptr noundef @.str.15) #19
  %125 = getelementptr inbounds [80 x i8], ptr %5, i64 0, i64 0
  %126 = getelementptr inbounds [80 x i8], ptr %5, i64 0, i64 0
  %127 = call i64 @strlen(ptr noundef %126) #7
  %128 = getelementptr inbounds i8, ptr %125, i64 %127
  %129 = getelementptr inbounds [74 x i8], ptr %6, i64 0, i64 0
  %130 = getelementptr inbounds [80 x i8], ptr %5, i64 0, i64 0
  %131 = call i64 @strlen(ptr noundef %130) #7
  %132 = sub i64 79, %131
  %133 = call ptr @strncat(ptr noundef %128, ptr noundef %129, i64 noundef %132) #19
  %134 = getelementptr inbounds [80 x i8], ptr %5, i64 0, i64 0
  %135 = call noundef ptr @_Z10pj_mkparamPKc(ptr noundef %134)
  store ptr %135, ptr %7, align 8
  %136 = load ptr, ptr %9, align 8
  %137 = load ptr, ptr %7, align 8
  %138 = call noundef ptr @_Z14pj_expand_initP6pj_ctxP8ARG_list(ptr noundef %136, ptr noundef %137)
  %139 = load ptr, ptr %9, align 8
  %140 = load ptr, ptr %7, align 8
  %141 = call i64 @_Z8pj_paramP6pj_ctxP8ARG_listPKc(ptr noundef %139, ptr noundef %140, ptr noundef @.str.54)
  %142 = getelementptr inbounds %union.PROJVALUE, ptr %12, i32 0, i32 0
  store i64 %141, ptr %142, align 8
  %143 = load i32, ptr %12, align 8
  %144 = icmp ne i32 %143, 0
  br i1 %144, label %145, label %154

145:                                              ; preds = %101
  %146 = getelementptr inbounds %struct.PJ_INIT_INFO, ptr %0, i32 0, i32 2
  %147 = getelementptr inbounds [32 x i8], ptr %146, i64 0, i64 0
  %148 = load ptr, ptr %9, align 8
  %149 = load ptr, ptr %7, align 8
  %150 = call i64 @_Z8pj_paramP6pj_ctxP8ARG_listPKc(ptr noundef %148, ptr noundef %149, ptr noundef @.str.55)
  %151 = getelementptr inbounds %union.PROJVALUE, ptr %13, i32 0, i32 0
  store i64 %150, ptr %151, align 8
  %152 = load ptr, ptr %13, align 8
  %153 = call ptr @strncpy(ptr noundef %147, ptr noundef %152, i64 noundef 31) #19
  br label %154

154:                                              ; preds = %145, %101
  %155 = load ptr, ptr %9, align 8
  %156 = load ptr, ptr %7, align 8
  %157 = call i64 @_Z8pj_paramP6pj_ctxP8ARG_listPKc(ptr noundef %155, ptr noundef %156, ptr noundef @.str.56)
  %158 = getelementptr inbounds %union.PROJVALUE, ptr %14, i32 0, i32 0
  store i64 %157, ptr %158, align 8
  %159 = load i32, ptr %14, align 8
  %160 = icmp ne i32 %159, 0
  br i1 %160, label %161, label %170

161:                                              ; preds = %154
  %162 = getelementptr inbounds %struct.PJ_INIT_INFO, ptr %0, i32 0, i32 3
  %163 = getelementptr inbounds [32 x i8], ptr %162, i64 0, i64 0
  %164 = load ptr, ptr %9, align 8
  %165 = load ptr, ptr %7, align 8
  %166 = call i64 @_Z8pj_paramP6pj_ctxP8ARG_listPKc(ptr noundef %164, ptr noundef %165, ptr noundef @.str.57)
  %167 = getelementptr inbounds %union.PROJVALUE, ptr %15, i32 0, i32 0
  store i64 %166, ptr %167, align 8
  %168 = load ptr, ptr %15, align 8
  %169 = call ptr @strncpy(ptr noundef %163, ptr noundef %168, i64 noundef 31) #19
  br label %170

170:                                              ; preds = %161, %154
  %171 = load ptr, ptr %9, align 8
  %172 = load ptr, ptr %7, align 8
  %173 = call i64 @_Z8pj_paramP6pj_ctxP8ARG_listPKc(ptr noundef %171, ptr noundef %172, ptr noundef @.str.58)
  %174 = getelementptr inbounds %union.PROJVALUE, ptr %16, i32 0, i32 0
  store i64 %173, ptr %174, align 8
  %175 = load i32, ptr %16, align 8
  %176 = icmp ne i32 %175, 0
  br i1 %176, label %177, label %186

177:                                              ; preds = %170
  %178 = getelementptr inbounds %struct.PJ_INIT_INFO, ptr %0, i32 0, i32 4
  %179 = getelementptr inbounds [16 x i8], ptr %178, i64 0, i64 0
  %180 = load ptr, ptr %9, align 8
  %181 = load ptr, ptr %7, align 8
  %182 = call i64 @_Z8pj_paramP6pj_ctxP8ARG_listPKc(ptr noundef %180, ptr noundef %181, ptr noundef @.str.59)
  %183 = getelementptr inbounds %union.PROJVALUE, ptr %17, i32 0, i32 0
  store i64 %182, ptr %183, align 8
  %184 = load ptr, ptr %17, align 8
  %185 = call ptr @strncpy(ptr noundef %179, ptr noundef %184, i64 noundef 15) #19
  br label %186

186:                                              ; preds = %177, %170
  br label %187

187:                                              ; preds = %195, %186
  %188 = load ptr, ptr %7, align 8
  %189 = icmp ne ptr %188, null
  br i1 %189, label %190, label %197

190:                                              ; preds = %187
  %191 = load ptr, ptr %7, align 8
  %192 = getelementptr inbounds %struct.ARG_list, ptr %191, i32 0, i32 0
  %193 = load ptr, ptr %192, align 8
  store ptr %193, ptr %8, align 8
  %194 = load ptr, ptr %7, align 8
  call void @free(ptr noundef %194) #19
  br label %195

195:                                              ; preds = %190
  %196 = load ptr, ptr %8, align 8
  store ptr %196, ptr %7, align 8
  br label %187, !llvm.loop !21

197:                                              ; preds = %187
  br label %198

198:                                              ; preds = %197, %100, %99, %66
  ret void
}